target datalayout = "e-m:e-p270:32:32-p271:32:32-p272:64:64-i64:64-i128:128-f80:128-n8:16:32:64-S128"
target triple = "x86_64-unknown-linux-gnu"

%"struct.std::array" = type { [2 x i64] }
%"class.arrow::Decimal128" = type { %"class.arrow::BasicDecimal128" }
%"class.arrow::BasicDecimal128" = type { %"class.arrow::GenericBasicDecimal" }
%"class.arrow::GenericBasicDecimal" = type { %"struct.std::array" }

; Function Attrs: mustprogress nounwind uwtable
define linkonce_odr noundef nonnull align 8 dereferenceable(8) ptr @_ZNSt14__array_traitsImLm2EE6_S_refERA2_Kmm(ptr noundef nonnull align 8 dereferenceable(16) %__t, i64 noundef %__n) #2 comdat align 2 {
entry:
  %__t.addr = alloca ptr, align 8
  %__n.addr = alloca i64, align 8
  store ptr %__t, ptr %__t.addr, align 8
  store i64 %__n, ptr %__n.addr, align 8
  %0 = load ptr, ptr %__t.addr, align 8
  %1 = load i64, ptr %__n.addr, align 8
  %arrayidx = getelementptr inbounds [2 x i64], ptr %0, i64 0, i64 %1
  ret ptr %arrayidx
}

; Function Attrs: mustprogress nounwind uwtable
define linkonce_odr noundef nonnull align 8 dereferenceable(8) ptr @_ZNKSt5arrayImLm2EEixEm(ptr noundef nonnull align 8 dereferenceable(16) %this, i64 noundef %__n) #2 comdat align 2 {
entry:
  %this.addr = alloca ptr, align 8
  %__n.addr = alloca i64, align 8
  store ptr %this, ptr %this.addr, align 8
  store i64 %__n, ptr %__n.addr, align 8
  %this1 = load ptr, ptr %this.addr, align 8
  %_M_elems = getelementptr inbounds %"struct.std::array", ptr %this1, i32 0, i32 0
  %0 = load i64, ptr %__n.addr, align 8
  %call = call noundef nonnull align 8 dereferenceable(8) ptr @_ZNSt14__array_traitsImLm2EE6_S_refERA2_Kmm(ptr noundef nonnull align 8 dereferenceable(16) %_M_elems, i64 noundef %0) #12
  ret ptr %call
}

; Function Attrs: mustprogress nounwind uwtable
define linkonce_odr noundef zeroext i1 @_ZNK5arrow19GenericBasicDecimalINS_15BasicDecimal128ELi128ELi2EE10IsNegativeEv(ptr noundef nonnull align 8 dereferenceable(16) %this) #2 comdat align 2 {
entry:
  %this.addr = alloca ptr, align 8
  store ptr %this, ptr %this.addr, align 8
  %this1 = load ptr, ptr %this.addr, align 8
  %array_ = getelementptr inbounds %"class.arrow::GenericBasicDecimal", ptr %this1, i32 0, i32 0
  %call = call noundef nonnull align 8 dereferenceable(8) ptr @_ZNKSt5arrayImLm2EEixEm(ptr noundef nonnull align 8 dereferenceable(16) %array_, i64 noundef 1) #12
  %0 = load i64, ptr %call, align 8
  %cmp = icmp slt i64 %0, 0
  ret i1 %cmp
}

; Function Attrs: mustprogress uwtable
define internal noundef float @_ZN5arrow12_GLOBAL__N_121DecimalRealConversionINS_10Decimal128ENS0_24Decimal128RealConversionEE6ToRealIfEET_RKS2_i(ptr noundef nonnull align 8 dereferenceable(16) %decimal, i32 noundef %scale) #0 align 2 {
entry:
  %retval = alloca float, align 4
  %decimal.addr = alloca ptr, align 8
  %scale.addr = alloca i32, align 4
  %abs = alloca %"class.arrow::Decimal128", align 8
  store ptr %decimal, ptr %decimal.addr, align 8
  store i32 %scale, ptr %scale.addr, align 4
  br label %while.cond

while.cond:                                       ; preds = %while.body, %entry
  br i1 false, label %while.body, label %while.end

while.body:                                       ; preds = %while.cond
  br label %while.cond, !llvm.loop !29

while.end:                                        ; preds = %while.cond
  br label %while.cond1

while.cond1:                                      ; preds = %while.body2, %while.end
  br i1 false, label %while.body2, label %while.end3

while.body2:                                      ; preds = %while.cond1
  br label %while.cond1, !llvm.loop !30

while.end3:                                       ; preds = %while.cond1
  br label %while.cond4

while.cond4:                                      ; preds = %while.body5, %while.end3
  br i1 false, label %while.body5, label %while.end6

while.body5:                                      ; preds = %while.cond4
  br label %while.cond4, !llvm.loop !31

while.end6:                                       ; preds = %while.cond4
  br label %while.cond7

while.cond7:                                      ; preds = %while.body8, %while.end6
  br i1 false, label %while.body8, label %while.end9

while.body8:                                      ; preds = %while.cond7
  br label %while.cond7, !llvm.loop !32

while.end9:                                       ; preds = %while.cond7
  br label %while.cond10

while.cond10:                                     ; preds = %while.body11, %while.end9
  br i1 false, label %while.body11, label %while.end12

while.body11:                                     ; preds = %while.cond10
  br label %while.cond10, !llvm.loop !33

while.end12:                                      ; preds = %while.cond10
  br label %while.cond13

while.cond13:                                     ; preds = %while.body14, %while.end12
  br i1 false, label %while.body14, label %while.end16

while.body14:                                     ; preds = %while.cond13
  br label %while.cond13, !llvm.loop !34

while.end16:                                      ; preds = %while.cond13
  %0 = load ptr, ptr %decimal.addr, align 8
  %call = call noundef zeroext i1 @_ZNK5arrow19GenericBasicDecimalINS_15BasicDecimal128ELi128ELi2EE10IsNegativeEv(ptr noundef nonnull align 8 dereferenceable(16) %0)
  br i1 %call, label %if.then, label %if.else

if.then:                                          ; preds = %while.end16
  %1 = load ptr, ptr %decimal.addr, align 8
  call void @llvm.memcpy.p0.p0.i64(ptr align 8 %abs, ptr align 8 %1, i64 16, i1 false)
  %call17 = call noundef nonnull align 8 dereferenceable(16) ptr @_ZN5arrow15BasicDecimal1286NegateEv(ptr noundef nonnull align 8 dereferenceable(16) %abs)
  %2 = load i32, ptr %scale.addr, align 4
  %call18 = call noundef float @_ZN5arrow12_GLOBAL__N_124Decimal128RealConversion14ToRealPositiveIfEET_RKNS_10Decimal128Ei(ptr noundef nonnull align 8 dereferenceable(16) %abs, i32 noundef %2)
  %fneg = fneg float %call18
  store float %fneg, ptr %retval, align 4
  br label %return

if.else:                                          ; preds = %while.end16
  %3 = load ptr, ptr %decimal.addr, align 8
  %4 = load i32, ptr %scale.addr, align 4
  %call19 = call noundef float @_ZN5arrow12_GLOBAL__N_124Decimal128RealConversion14ToRealPositiveIfEET_RKNS_10Decimal128Ei(ptr noundef nonnull align 8 dereferenceable(16) %3, i32 noundef %4)
  store float %call19, ptr %retval, align 4
  br label %return

return:                                           ; preds = %if.else, %if.then
  %5 = load float, ptr %retval, align 4
  ret float %5
}

; Function Attrs: mustprogress uwtable
define noundef float @_ZNK5arrow10Decimal1287ToFloatEi(ptr noundef nonnull align 8 dereferenceable(16) %this, i32 noundef %scale) #0 align 2 {
entry:
  %this.addr = alloca ptr, align 8
  %scale.addr = alloca i32, align 4
  store ptr %this, ptr %this.addr, align 8
  store i32 %scale, ptr %scale.addr, align 4
  %this1 = load ptr, ptr %this.addr, align 8
  %0 = load i32, ptr %scale.addr, align 4
  %call = call noundef float @_ZN5arrow12_GLOBAL__N_121DecimalRealConversionINS_10Decimal128ENS0_24Decimal128RealConversionEE6ToRealIfEET_RKS2_i(ptr noundef nonnull align 8 dereferenceable(16) %this1, i32 noundef %0)
  ret float %call
}